; Function Attrs: nounwind uwtable
define dso_local void @pubsubShardUnsubscribeAllChannelsInSlot(i32 noundef %0) local_unnamed_addr #2 {
  %2 = load ptr, ptr getelementptr inbounds nuw (i8, ptr @server, i64 7872), align 8, !tbaa !65
  %3 = tail call i64 @kvstoreDictSize(ptr noundef %2, i32 noundef %0) #9
  %.not = icmp eq i64 %3, 0
  br i1 %.not, label %78, label %4

4:                                                ; preds = %1
  %5 = load ptr, ptr getelementptr inbounds nuw (i8, ptr @server, i64 7872), align 8, !tbaa !65
  %6 = tail call ptr @kvstoreGetDictSafeIterator(ptr noundef %5, i32 noundef %0) #9
  %7 = tail call ptr @kvstoreDictIteratorNext(ptr noundef %6) #9
  %.not2127 = icmp eq ptr %7, null
  br i1 %.not2127, label %._crit_edge30, label %.lr.ph29

.lr.ph29:                                         ; preds = %4, %._crit_edge
  %8 = phi ptr [ %77, %._crit_edge ], [ %7, %4 ]
  %9 = tail call ptr @dictGetKey(ptr noundef nonnull %8) #9
  %10 = tail call ptr @dictGetVal(ptr noundef nonnull %8) #9
  %11 = tail call ptr @dictGetIterator(ptr noundef %10) #9
  %12 = tail call ptr @dictNext(ptr noundef %11) #9
  %.not2226 = icmp eq ptr %12, null
  br i1 %.not2226, label %._crit_edge, label %.lr.ph

.lr.ph:                                           ; preds = %.lr.ph29
  %.not.i = icmp eq ptr %9, null
  br label %13

13:                                               ; preds = %.lr.ph, %unmarkClientAsPubSub.exit
  %14 = phi ptr [ %12, %.lr.ph ], [ %74, %unmarkClientAsPubSub.exit ]
  %15 = tail call ptr @dictGetKey(ptr noundef nonnull %14) #9
  %16 = getelementptr inbounds nuw i8, ptr %15, i64 584
  %17 = load ptr, ptr %16, align 8, !tbaa !30
  %18 = tail call i32 @dictDelete(ptr noundef %17, ptr noundef %9) #9
  %19 = icmp eq i32 %18, 0
  br i1 %19, label %21, label %20, !prof !75

20:                                               ; preds = %13
  tail call void @_serverAssertWithInfo(ptr noundef nonnull %15, ptr noundef %9, ptr noundef nonnull @.str.5, ptr noundef nonnull @.str.1, i32 noundef 325) #9
  tail call void @abort() #10
  unreachable

21:                                               ; preds = %13
  %pubSubShardType.sroa.3.0.copyload = load ptr, ptr getelementptr inbounds nuw (i8, ptr @pubSubShardType, i64 16), align 8
  %pubSubShardType.sroa.424.0.copyload = load ptr, ptr getelementptr inbounds nuw (i8, ptr @pubSubShardType, i64 40), align 8
  %22 = getelementptr inbounds nuw i8, ptr %15, i64 8
  %23 = load i64, ptr %22, align 8, !tbaa !31
  %24 = or i64 %23, 70368744177664
  store i64 %24, ptr %22, align 8, !tbaa !31
  %25 = getelementptr inbounds nuw i8, ptr %15, i64 28
  %26 = load i32, ptr %25, align 4, !tbaa !32
  %27 = icmp eq i32 %26, 2
  br i1 %27, label %28, label %30

28:                                               ; preds = %21
  %29 = load ptr, ptr getelementptr inbounds nuw (i8, ptr @shared, i64 80904), align 8, !tbaa !33
  tail call void @addReply(ptr noundef nonnull %15, ptr noundef %29) #9
  br label %31

30:                                               ; preds = %21
  tail call void @addReplyPushLen(ptr noundef nonnull %15, i64 noundef 3) #9
  br label %31

31:                                               ; preds = %30, %28
  %32 = load ptr, ptr %pubSubShardType.sroa.424.0.copyload, align 8, !tbaa !33
  tail call void @addReply(ptr noundef nonnull %15, ptr noundef %32) #9
  br i1 %.not.i, label %34, label %33

33:                                               ; preds = %31
  tail call void @addReplyBulk(ptr noundef nonnull %15, ptr noundef nonnull %9) #9
  br label %35

34:                                               ; preds = %31
  tail call void @addReplyNull(ptr noundef nonnull %15) #9
  br label %35

35:                                               ; preds = %34, %33
  %36 = tail call i32 %pubSubShardType.sroa.3.0.copyload(ptr noundef nonnull %15) #9
  %37 = sext i32 %36 to i64
  tail call void @addReplyLongLong(ptr noundef nonnull %15, i64 noundef %37) #9
  %38 = and i64 %23, 70368744177664
  %.not13.i = icmp eq i64 %38, 0
  br i1 %.not13.i, label %39, label %addReplyPubsubUnsubscribed.exit

39:                                               ; preds = %35
  %40 = load i64, ptr %22, align 8, !tbaa !31
  %41 = and i64 %40, -70368744177665
  store i64 %41, ptr %22, align 8, !tbaa !31
  br label %addReplyPubsubUnsubscribed.exit

addReplyPubsubUnsubscribed.exit:                  ; preds = %35, %39
  %42 = getelementptr inbounds nuw i8, ptr %15, i64 568
  %43 = load ptr, ptr %42, align 8, !tbaa !5
  %44 = getelementptr inbounds nuw i8, ptr %43, i64 24
  %45 = load i64, ptr %44, align 8, !tbaa !28
  %46 = getelementptr inbounds nuw i8, ptr %43, i64 32
  %47 = load i64, ptr %46, align 8, !tbaa !28
  %48 = getelementptr inbounds nuw i8, ptr %15, i64 576
  %49 = load ptr, ptr %48, align 8, !tbaa !29
  %50 = getelementptr inbounds nuw i8, ptr %49, i64 24
  %51 = load i64, ptr %50, align 8, !tbaa !28
  %52 = getelementptr inbounds nuw i8, ptr %49, i64 32
  %53 = load i64, ptr %52, align 8, !tbaa !28
  %54 = add i64 %47, %45
  %55 = add i64 %54, %51
  %56 = add i64 %55, %53
  %57 = trunc i64 %56 to i32
  %58 = load ptr, ptr %16, align 8, !tbaa !30
  %59 = getelementptr inbounds nuw i8, ptr %58, i64 24
  %60 = load i64, ptr %59, align 8, !tbaa !28
  %61 = getelementptr inbounds nuw i8, ptr %58, i64 32
  %62 = load i64, ptr %61, align 8, !tbaa !28
  %63 = add i64 %62, %60
  %64 = trunc i64 %63 to i32
  %65 = sub i32 0, %57
  %66 = icmp eq i32 %64, %65
  br i1 %66, label %67, label %unmarkClientAsPubSub.exit

67:                                               ; preds = %addReplyPubsubUnsubscribed.exit
  %68 = load i64, ptr %22, align 8, !tbaa !31
  %69 = and i64 %68, 262144
  %.not.i23 = icmp eq i64 %69, 0
  br i1 %.not.i23, label %unmarkClientAsPubSub.exit, label %70

70:                                               ; preds = %67
  %71 = and i64 %68, -262145
  store i64 %71, ptr %22, align 8, !tbaa !31
  %72 = load i32, ptr getelementptr inbounds nuw (i8, ptr @server, i64 7880), align 8, !tbaa !66
  %73 = add i32 %72, -1
  store i32 %73, ptr getelementptr inbounds nuw (i8, ptr @server, i64 7880), align 8, !tbaa !66
  br label %unmarkClientAsPubSub.exit

unmarkClientAsPubSub.exit:                        ; preds = %70, %67, %addReplyPubsubUnsubscribed.exit
  %74 = tail call ptr @dictNext(ptr noundef %11) #9
  %.not22 = icmp eq ptr %74, null
  br i1 %.not22, label %._crit_edge, label %13, !llvm.loop !76

._crit_edge:                                      ; preds = %unmarkClientAsPubSub.exit, %.lr.ph29
  tail call void @dictReleaseIterator(ptr noundef %11) #9
  %75 = load ptr, ptr getelementptr inbounds nuw (i8, ptr @server, i64 7872), align 8, !tbaa !65
  %76 = tail call i32 @kvstoreDictDelete(ptr noundef %75, i32 noundef %0, ptr noundef %9) #9
  %77 = tail call ptr @kvstoreDictIteratorNext(ptr noundef %6) #9
  %.not21 = icmp eq ptr %77, null
  br i1 %.not21, label %._crit_edge30, label %.lr.ph29, !llvm.loop !78

._crit_edge30:                                    ; preds = %._crit_edge, %4
  tail call void @kvstoreReleaseDictIterator(ptr noundef %6) #9
  br label %78

78:                                               ; preds = %1, %._crit_edge30
  ret void
}